target datalayout = "e-m:e-p270:32:32-p271:32:32-p272:64:64-i64:64-i128:128-f80:128-n8:16:32:64-S128"
target triple = "x86_64-pc-linux-gnu"

%struct.fstWriterContext = type { ptr, ptr, ptr, ptr, ptr, ptr, ptr, i64, ptr, ptr, ptr, i32, ptr, i32, i32, i32, i8, i64, i64, i32, i32, i64, i64, i32, i32, i32, i64, i32, double, ptr, ptr, i32, i64, i8, i8, i8, i8, i8, i64, i64, i64, i64, i64, i32, ptr, i32, i8, ptr, ptr, ptr, ptr, i32 }

@stderr = external global ptr, align 8
@.str.18 = private unnamed_addr constant [83 x i8] c"FSTAPI  | Could not realloc() in fstWriterEmitVariableLengthValueChange, exiting.\0A\00", align 1

; Function Attrs: mustprogress nounwind uwtable
define internal noundef i32 @_ZL36fstWriterUint32WithVarint32AndLengthP16fstWriterContextPjjPKvj(ptr noundef %0, ptr noundef %1, i32 noundef %2, ptr noundef %3, i32 noundef %4) #8 {
  %6 = alloca ptr, align 8
  %7 = alloca ptr, align 8
  %8 = alloca i32, align 4
  %9 = alloca ptr, align 8
  %10 = alloca i32, align 4
  %11 = alloca ptr, align 8
  %12 = alloca ptr, align 8
  %13 = alloca i32, align 4
  %14 = alloca i32, align 4
  store ptr %0, ptr %6, align 8, !tbaa !13
  store ptr %1, ptr %7, align 8, !tbaa !82
  store i32 %2, ptr %8, align 4, !tbaa !11
  store ptr %3, ptr %9, align 8, !tbaa !50
  store i32 %4, ptr %10, align 4, !tbaa !11
  call void @llvm.lifetime.start.p0(i64 8, ptr %11) #15
  %15 = load ptr, ptr %6, align 8, !tbaa !13
  %16 = getelementptr inbounds nuw %struct.fstWriterContext, ptr %15, i32 0, i32 6
  %17 = load ptr, ptr %16, align 8, !tbaa !30
  %18 = load ptr, ptr %6, align 8, !tbaa !13
  %19 = getelementptr inbounds nuw %struct.fstWriterContext, ptr %18, i32 0, i32 23
  %20 = load i32, ptr %19, align 8, !tbaa !55
  %21 = zext i32 %20 to i64
  %22 = getelementptr inbounds nuw i8, ptr %17, i64 %21
  store ptr %22, ptr %11, align 8, !tbaa !6
  call void @llvm.lifetime.start.p0(i64 8, ptr %12) #15
  %23 = load ptr, ptr %11, align 8, !tbaa !6
  store ptr %23, ptr %12, align 8, !tbaa !6
  call void @llvm.lifetime.start.p0(i64 4, ptr %13) #15
  call void @llvm.lifetime.start.p0(i64 4, ptr %14) #15
  %24 = load ptr, ptr %12, align 8, !tbaa !6
  %25 = load ptr, ptr %7, align 8, !tbaa !82
  call void @llvm.memcpy.p0.p0.i64(ptr align 1 %24, ptr align 4 %25, i64 4, i1 false)
  %26 = load ptr, ptr %12, align 8, !tbaa !6
  %27 = getelementptr inbounds i8, ptr %26, i64 4
  store ptr %27, ptr %12, align 8, !tbaa !6
  br label %28

28:                                               ; preds = %32, %5
  %29 = load i32, ptr %8, align 4, !tbaa !11
  %30 = lshr i32 %29, 7
  store i32 %30, ptr %13, align 4, !tbaa !11
  %31 = icmp ne i32 %30, 0
  br i1 %31, label %32, label %41

32:                                               ; preds = %28
  %33 = load i32, ptr %8, align 4, !tbaa !11
  %34 = trunc i32 %33 to i8
  %35 = zext i8 %34 to i32
  %36 = or i32 %35, 128
  %37 = trunc i32 %36 to i8
  %38 = load ptr, ptr %12, align 8, !tbaa !6
  %39 = getelementptr inbounds nuw i8, ptr %38, i32 1
  store ptr %39, ptr %12, align 8, !tbaa !6
  store i8 %37, ptr %38, align 1, !tbaa !34
  %40 = load i32, ptr %13, align 4, !tbaa !11
  store i32 %40, ptr %8, align 4, !tbaa !11
  br label %28, !llvm.loop !144

41:                                               ; preds = %28
  %42 = load i32, ptr %8, align 4, !tbaa !11
  %43 = trunc i32 %42 to i8
  %44 = load ptr, ptr %12, align 8, !tbaa !6
  %45 = getelementptr inbounds nuw i8, ptr %44, i32 1
  store ptr %45, ptr %12, align 8, !tbaa !6
  store i8 %43, ptr %44, align 1, !tbaa !34
  %46 = load i32, ptr %10, align 4, !tbaa !11
  store i32 %46, ptr %8, align 4, !tbaa !11
  br label %47

47:                                               ; preds = %51, %41
  %48 = load i32, ptr %8, align 4, !tbaa !11
  %49 = lshr i32 %48, 7
  store i32 %49, ptr %13, align 4, !tbaa !11
  %50 = icmp ne i32 %49, 0
  br i1 %50, label %51, label %60

51:                                               ; preds = %47
  %52 = load i32, ptr %8, align 4, !tbaa !11
  %53 = trunc i32 %52 to i8
  %54 = zext i8 %53 to i32
  %55 = or i32 %54, 128
  %56 = trunc i32 %55 to i8
  %57 = load ptr, ptr %12, align 8, !tbaa !6
  %58 = getelementptr inbounds nuw i8, ptr %57, i32 1
  store ptr %58, ptr %12, align 8, !tbaa !6
  store i8 %56, ptr %57, align 1, !tbaa !34
  %59 = load i32, ptr %13, align 4, !tbaa !11
  store i32 %59, ptr %8, align 4, !tbaa !11
  br label %47, !llvm.loop !145

60:                                               ; preds = %47
  %61 = load i32, ptr %8, align 4, !tbaa !11
  %62 = trunc i32 %61 to i8
  %63 = load ptr, ptr %12, align 8, !tbaa !6
  %64 = getelementptr inbounds nuw i8, ptr %63, i32 1
  store ptr %64, ptr %12, align 8, !tbaa !6
  store i8 %62, ptr %63, align 1, !tbaa !34
  %65 = load ptr, ptr %12, align 8, !tbaa !6
  %66 = load ptr, ptr %9, align 8, !tbaa !50
  %67 = load i32, ptr %10, align 4, !tbaa !11
  %68 = zext i32 %67 to i64
  call void @llvm.memcpy.p0.p0.i64(ptr align 1 %65, ptr align 1 %66, i64 %68, i1 false)
  %69 = load ptr, ptr %12, align 8, !tbaa !6
  %70 = load ptr, ptr %11, align 8, !tbaa !6
  %71 = ptrtoint ptr %69 to i64
  %72 = ptrtoint ptr %70 to i64
  %73 = sub i64 %71, %72
  %74 = load i32, ptr %10, align 4, !tbaa !11
  %75 = zext i32 %74 to i64
  %76 = add nsw i64 %73, %75
  %77 = trunc i64 %76 to i32
  store i32 %77, ptr %14, align 4, !tbaa !11
  %78 = load i32, ptr %14, align 4, !tbaa !11
  call void @llvm.lifetime.end.p0(i64 4, ptr %14) #15
  call void @llvm.lifetime.end.p0(i64 4, ptr %13) #15
  call void @llvm.lifetime.end.p0(i64 8, ptr %12) #15
  call void @llvm.lifetime.end.p0(i64 8, ptr %11) #15
  ret i32 %78
}

; Function Attrs: mustprogress uwtable
define void @fstWriterEmitVariableLengthValueChange(ptr noundef %0, i32 noundef %1, ptr noundef %2, i32 noundef %3) #0 {
  %5 = alloca ptr, align 8
  %6 = alloca i32, align 4
  %7 = alloca ptr, align 8
  %8 = alloca i32, align 4
  %9 = alloca ptr, align 8
  %10 = alloca ptr, align 8
  %11 = alloca i32, align 4
  %12 = alloca ptr, align 8
  store ptr %0, ptr %5, align 8, !tbaa !50
  store i32 %1, ptr %6, align 4, !tbaa !11
  store ptr %2, ptr %7, align 8, !tbaa !50
  store i32 %3, ptr %8, align 4, !tbaa !11
  call void @llvm.lifetime.start.p0(i64 8, ptr %9) #15
  %13 = load ptr, ptr %5, align 8, !tbaa !50
  store ptr %13, ptr %9, align 8, !tbaa !13
  call void @llvm.lifetime.start.p0(i64 8, ptr %10) #15
  %14 = load ptr, ptr %7, align 8, !tbaa !50
  store ptr %14, ptr %10, align 8, !tbaa !6
  %15 = load ptr, ptr %9, align 8, !tbaa !13
  %16 = icmp ne ptr %15, null
  br i1 %16, label %17, label %23

17:                                               ; preds = %4
  %18 = load i32, ptr %6, align 4, !tbaa !11
  %19 = load ptr, ptr %9, align 8, !tbaa !13
  %20 = getelementptr inbounds nuw %struct.fstWriterContext, ptr %19, i32 0, i32 13
  %21 = load i32, ptr %20, align 8, !tbaa !56
  %22 = icmp ule i32 %18, %21
  br label %23

23:                                               ; preds = %17, %4
  %24 = phi i1 [ false, %4 ], [ %22, %17 ]
  %25 = xor i1 %24, true
  %26 = xor i1 %25, true
  %27 = zext i1 %26 to i64
  %28 = call i64 @llvm.expect.i64(i64 %27, i64 1)
  %29 = icmp ne i64 %28, 0
  br i1 %29, label %30, label %151

30:                                               ; preds = %23
  call void @llvm.lifetime.start.p0(i64 4, ptr %11) #15
  call void @llvm.lifetime.start.p0(i64 8, ptr %12) #15
  %31 = load ptr, ptr %9, align 8, !tbaa !13
  %32 = getelementptr inbounds nuw %struct.fstWriterContext, ptr %31, i32 0, i32 8
  %33 = load ptr, ptr %32, align 8, !tbaa !58
  %34 = icmp ne ptr %33, null
  %35 = xor i1 %34, true
  %36 = xor i1 %35, true
  %37 = xor i1 %36, true
  %38 = zext i1 %37 to i64
  %39 = call i64 @llvm.expect.i64(i64 %38, i64 0)
  %40 = icmp ne i64 %39, 0
  br i1 %40, label %41, label %48

41:                                               ; preds = %30
  %42 = load ptr, ptr %9, align 8, !tbaa !13
  %43 = getelementptr inbounds nuw %struct.fstWriterContext, ptr %42, i32 0, i32 16
  %44 = load i8, ptr %43, align 4
  %45 = and i8 %44, -2
  %46 = or i8 %45, 1
  store i8 %46, ptr %43, align 4
  %47 = load ptr, ptr %9, align 8, !tbaa !13
  call void @_ZL20fstWriterCreateMmapsP16fstWriterContext(ptr noundef %47)
  br label %48

48:                                               ; preds = %41, %30
  %49 = load i32, ptr %6, align 4, !tbaa !11
  %50 = add i32 %49, -1
  store i32 %50, ptr %6, align 4, !tbaa !11
  %51 = load ptr, ptr %9, align 8, !tbaa !13
  %52 = getelementptr inbounds nuw %struct.fstWriterContext, ptr %51, i32 0, i32 8
  %53 = load ptr, ptr %52, align 8, !tbaa !58
  %54 = load i32, ptr %6, align 4, !tbaa !11
  %55 = mul i32 4, %54
  %56 = zext i32 %55 to i64
  %57 = getelementptr inbounds nuw i32, ptr %53, i64 %56
  store ptr %57, ptr %12, align 8, !tbaa !82
  %58 = load ptr, ptr %12, align 8, !tbaa !82
  %59 = getelementptr inbounds i32, ptr %58, i64 1
  %60 = load i32, ptr %59, align 4, !tbaa !11
  %61 = icmp ne i32 %60, 0
  %62 = xor i1 %61, true
  %63 = xor i1 %62, true
  %64 = xor i1 %63, true
  %65 = zext i1 %64 to i64
  %66 = call i64 @llvm.expect.i64(i64 %65, i64 1)
  %67 = icmp ne i64 %66, 0
  br i1 %67, label %68, label %150

68:                                               ; preds = %48
  %69 = load ptr, ptr %9, align 8, !tbaa !13
  %70 = getelementptr inbounds nuw %struct.fstWriterContext, ptr %69, i32 0, i32 23
  %71 = load i32, ptr %70, align 8, !tbaa !55
  store i32 %71, ptr %11, align 4, !tbaa !11
  %72 = load i32, ptr %11, align 4, !tbaa !11
  %73 = load i32, ptr %8, align 4, !tbaa !11
  %74 = add i32 %72, %73
  %75 = add i32 %74, 10
  %76 = add i32 %75, 5
  %77 = load ptr, ptr %9, align 8, !tbaa !13
  %78 = getelementptr inbounds nuw %struct.fstWriterContext, ptr %77, i32 0, i32 24
  %79 = load i32, ptr %78, align 4, !tbaa !29
  %80 = icmp ugt i32 %76, %79
  %81 = xor i1 %80, true
  %82 = xor i1 %81, true
  %83 = zext i1 %82 to i64
  %84 = call i64 @llvm.expect.i64(i64 %83, i64 0)
  %85 = icmp ne i64 %84, 0
  br i1 %85, label %86, label %124

86:                                               ; preds = %68
  %87 = load ptr, ptr %9, align 8, !tbaa !13
  %88 = getelementptr inbounds nuw %struct.fstWriterContext, ptr %87, i32 0, i32 41
  %89 = load i64, ptr %88, align 8, !tbaa !28
  %90 = load i32, ptr %8, align 4, !tbaa !11
  %91 = zext i32 %90 to i64
  %92 = add i64 %89, %91
  %93 = add i64 %92, 5
  %94 = load ptr, ptr %9, align 8, !tbaa !13
  %95 = getelementptr inbounds nuw %struct.fstWriterContext, ptr %94, i32 0, i32 24
  %96 = load i32, ptr %95, align 4, !tbaa !29
  %97 = zext i32 %96 to i64
  %98 = add i64 %97, %93
  %99 = trunc i64 %98 to i32
  store i32 %99, ptr %95, align 4, !tbaa !29
  %100 = load ptr, ptr %9, align 8, !tbaa !13
  %101 = getelementptr inbounds nuw %struct.fstWriterContext, ptr %100, i32 0, i32 6
  %102 = load ptr, ptr %101, align 8, !tbaa !30
  %103 = load ptr, ptr %9, align 8, !tbaa !13
  %104 = getelementptr inbounds nuw %struct.fstWriterContext, ptr %103, i32 0, i32 24
  %105 = load i32, ptr %104, align 4, !tbaa !29
  %106 = zext i32 %105 to i64
  %107 = call ptr @realloc(ptr noundef %102, i64 noundef %106) #20
  %108 = load ptr, ptr %9, align 8, !tbaa !13
  %109 = getelementptr inbounds nuw %struct.fstWriterContext, ptr %108, i32 0, i32 6
  store ptr %107, ptr %109, align 8, !tbaa !30
  %110 = load ptr, ptr %9, align 8, !tbaa !13
  %111 = getelementptr inbounds nuw %struct.fstWriterContext, ptr %110, i32 0, i32 6
  %112 = load ptr, ptr %111, align 8, !tbaa !30
  %113 = icmp ne ptr %112, null
  %114 = xor i1 %113, true
  %115 = xor i1 %114, true
  %116 = xor i1 %115, true
  %117 = zext i1 %116 to i64
  %118 = call i64 @llvm.expect.i64(i64 %117, i64 0)
  %119 = icmp ne i64 %118, 0
  br i1 %119, label %120, label %123

120:                                              ; preds = %86
  %121 = load ptr, ptr @stderr, align 8, !tbaa !33
  %122 = call i32 (ptr, ptr, ...) @fprintf(ptr noundef %121, ptr noundef @.str.18) #15
  call void @exit(i32 noundef 255) #21
  unreachable

123:                                              ; preds = %86
  br label %124

124:                                              ; preds = %123, %68
  %125 = load ptr, ptr %9, align 8, !tbaa !13
  %126 = load ptr, ptr %12, align 8, !tbaa !82
  %127 = getelementptr inbounds i32, ptr %126, i64 2
  %128 = load ptr, ptr %9, align 8, !tbaa !13
  %129 = getelementptr inbounds nuw %struct.fstWriterContext, ptr %128, i32 0, i32 20
  %130 = load i32, ptr %129, align 4, !tbaa !51
  %131 = load ptr, ptr %12, align 8, !tbaa !82
  %132 = getelementptr inbounds i32, ptr %131, i64 3
  %133 = load i32, ptr %132, align 4, !tbaa !11
  %134 = sub i32 %130, %133
  %135 = load ptr, ptr %10, align 8, !tbaa !6
  %136 = load i32, ptr %8, align 4, !tbaa !11
  %137 = call noundef i32 @_ZL36fstWriterUint32WithVarint32AndLengthP16fstWriterContextPjjPKvj(ptr noundef %125, ptr noundef %127, i32 noundef %134, ptr noundef %135, i32 noundef %136)
  %138 = load ptr, ptr %9, align 8, !tbaa !13
  %139 = getelementptr inbounds nuw %struct.fstWriterContext, ptr %138, i32 0, i32 23
  %140 = load i32, ptr %139, align 8, !tbaa !55
  %141 = add i32 %140, %137
  store i32 %141, ptr %139, align 8, !tbaa !55
  %142 = load ptr, ptr %9, align 8, !tbaa !13
  %143 = getelementptr inbounds nuw %struct.fstWriterContext, ptr %142, i32 0, i32 20
  %144 = load i32, ptr %143, align 4, !tbaa !51
  %145 = load ptr, ptr %12, align 8, !tbaa !82
  %146 = getelementptr inbounds i32, ptr %145, i64 3
  store i32 %144, ptr %146, align 4, !tbaa !11
  %147 = load i32, ptr %11, align 4, !tbaa !11
  %148 = load ptr, ptr %12, align 8, !tbaa !82
  %149 = getelementptr inbounds i32, ptr %148, i64 2
  store i32 %147, ptr %149, align 4, !tbaa !11
  br label %150

150:                                              ; preds = %124, %48
  call void @llvm.lifetime.end.p0(i64 8, ptr %12) #15
  call void @llvm.lifetime.end.p0(i64 4, ptr %11) #15
  br label %151

151:                                              ; preds = %150, %23
  call void @llvm.lifetime.end.p0(i64 8, ptr %10) #15
  call void @llvm.lifetime.end.p0(i64 8, ptr %9) #15
  ret void
}