; Function Attrs: mustprogress nounwind uwtable
define void @fstWriterEmitVariableLengthValueChange(ptr noundef captures(address_is_null) %0, i32 noundef %1, ptr noundef readonly captures(none) %2, i32 noundef %3) local_unnamed_addr #0 {
  %.not = icmp eq ptr %0, null
  br i1 %.not, label %.critedge, label %5, !prof !85

5:                                                ; preds = %4
  %6 = getelementptr inbounds nuw i8, ptr %0, i64 104
  %7 = load i32, ptr %6, align 8, !tbaa !48
  %.not39 = icmp ugt i32 %1, %7
  br i1 %.not39, label %.critedge, label %8, !prof !85

8:                                                ; preds = %5
  %9 = getelementptr inbounds nuw i8, ptr %0, i64 64
  %10 = load ptr, ptr %9, align 8, !tbaa !50
  %.not34 = icmp eq ptr %10, null
  br i1 %.not34, label %11, label %15, !prof !85

11:                                               ; preds = %8
  %12 = getelementptr inbounds nuw i8, ptr %0, i64 116
  %13 = load i8, ptr %12, align 4
  %14 = or i8 %13, 1
  store i8 %14, ptr %12, align 4
  tail call fastcc void @_ZL20fstWriterCreateMmapsP16fstWriterContext(ptr noundef nonnull %0)
  %.pre = load ptr, ptr %9, align 8, !tbaa !50
  br label %15

15:                                               ; preds = %11, %8
  %16 = phi ptr [ %.pre, %11 ], [ %10, %8 ]
  %17 = shl i32 %1, 2
  %18 = add i32 %17, -4
  %19 = zext i32 %18 to i64
  %20 = getelementptr inbounds nuw i32, ptr %16, i64 %19
  %21 = getelementptr inbounds nuw i8, ptr %20, i64 4
  %22 = load i32, ptr %21, align 4, !tbaa !51
  %.not35 = icmp eq i32 %22, 0
  br i1 %.not35, label %23, label %.critedge, !prof !47

23:                                               ; preds = %15
  %24 = getelementptr inbounds nuw i8, ptr %0, i64 160
  %25 = load i32, ptr %24, align 8, !tbaa !46
  %26 = add i32 %3, 15
  %27 = add i32 %26, %25
  %28 = getelementptr inbounds nuw i8, ptr %0, i64 164
  %29 = load i32, ptr %28, align 4, !tbaa !33
  %30 = icmp ugt i32 %27, %29
  br i1 %30, label %31, label %._crit_edge, !prof !85

._crit_edge:                                      ; preds = %23
  %.phi.trans.insert = getelementptr i8, ptr %0, i64 48
  %.val.pre = load ptr, ptr %.phi.trans.insert, align 8, !tbaa !34
  br label %45

31:                                               ; preds = %23
  %32 = getelementptr inbounds nuw i8, ptr %0, i64 264
  %33 = load i64, ptr %32, align 8, !tbaa !24
  %34 = trunc i64 %33 to i32
  %35 = add i32 %3, 5
  %36 = add i32 %35, %29
  %37 = add i32 %36, %34
  store i32 %37, ptr %28, align 4, !tbaa !33
  %38 = getelementptr inbounds nuw i8, ptr %0, i64 48
  %39 = load ptr, ptr %38, align 8, !tbaa !34
  %40 = zext i32 %37 to i64
  %41 = tail call ptr @realloc(ptr noundef %39, i64 noundef %40) #45
  store ptr %41, ptr %38, align 8, !tbaa !34
  %.not36 = icmp eq ptr %41, null
  br i1 %.not36, label %42, label %._crit_edge45, !prof !85

._crit_edge45:                                    ; preds = %31
  %.val37.pre = load i32, ptr %24, align 8, !tbaa !46
  br label %45

42:                                               ; preds = %31
  %43 = load ptr, ptr @stderr, align 8, !tbaa !41
  %44 = tail call i64 @fwrite(ptr nonnull @.str.18, i64 82, i64 1, ptr %43) #44
  tail call void @exit(i32 noundef 255) #46
  unreachable

45:                                               ; preds = %._crit_edge45, %._crit_edge
  %.val37 = phi i32 [ %25, %._crit_edge ], [ %.val37.pre, %._crit_edge45 ]
  %.val = phi ptr [ %.val.pre, %._crit_edge ], [ %41, %._crit_edge45 ]
  %46 = getelementptr inbounds nuw i8, ptr %20, i64 8
  %47 = getelementptr inbounds nuw i8, ptr %0, i64 140
  %48 = load i32, ptr %47, align 4, !tbaa !42
  %49 = getelementptr inbounds nuw i8, ptr %20, i64 12
  %50 = load i32, ptr %49, align 4, !tbaa !51
  %51 = sub i32 %48, %50
  %.val38 = load i32, ptr %46, align 4
  %52 = zext i32 %.val37 to i64
  %53 = getelementptr inbounds nuw i8, ptr %.val, i64 %52
  store i32 %.val38, ptr %53, align 1
  %54 = getelementptr inbounds nuw i8, ptr %53, i64 4
  %.not1.i = icmp ult i32 %51, 128
  br i1 %.not1.i, label %._crit_edge.i, label %.lr.ph.i

.lr.ph.i:                                         ; preds = %45, %.lr.ph.i
  %.03.i = phi i32 [ %55, %.lr.ph.i ], [ %51, %45 ]
  %.0252.i = phi ptr [ %58, %.lr.ph.i ], [ %54, %45 ]
  %55 = lshr i32 %.03.i, 7
  %56 = trunc i32 %.03.i to i8
  %57 = or i8 %56, -128
  %58 = getelementptr inbounds nuw i8, ptr %.0252.i, i64 1
  store i8 %57, ptr %.0252.i, align 1, !tbaa !6
  %.not.i = icmp ult i32 %.03.i, 16384
  br i1 %.not.i, label %._crit_edge.i, label %.lr.ph.i, !llvm.loop !122

._crit_edge.i:                                    ; preds = %.lr.ph.i, %45
  %.025.lcssa.i = phi ptr [ %54, %45 ], [ %58, %.lr.ph.i ]
  %.0.lcssa.i = phi i32 [ %51, %45 ], [ %55, %.lr.ph.i ]
  %59 = trunc nuw i32 %.0.lcssa.i to i8
  store i8 %59, ptr %.025.lcssa.i, align 1, !tbaa !6
  %.1265.i = getelementptr inbounds nuw i8, ptr %.025.lcssa.i, i64 1
  %.not296.i = icmp ult i32 %3, 128
  br i1 %.not296.i, label %_ZL36fstWriterUint32WithVarint32AndLengthP16fstWriterContextPjjPKvj.exit, label %.lr.ph10.i

.lr.ph10.i:                                       ; preds = %._crit_edge.i, %.lr.ph10.i
  %.1268.i = phi ptr [ %.126.i, %.lr.ph10.i ], [ %.1265.i, %._crit_edge.i ]
  %.17.i = phi i32 [ %60, %.lr.ph10.i ], [ %3, %._crit_edge.i ]
  %60 = lshr i32 %.17.i, 7
  %61 = trunc i32 %.17.i to i8
  %62 = or i8 %61, -128
  store i8 %62, ptr %.1268.i, align 1, !tbaa !6
  %.126.i = getelementptr inbounds nuw i8, ptr %.1268.i, i64 1
  %.not29.i = icmp ult i32 %.17.i, 16384
  br i1 %.not29.i, label %_ZL36fstWriterUint32WithVarint32AndLengthP16fstWriterContextPjjPKvj.exit, label %.lr.ph10.i, !llvm.loop !123

_ZL36fstWriterUint32WithVarint32AndLengthP16fstWriterContextPjjPKvj.exit: ; preds = %.lr.ph10.i, %._crit_edge.i
  %.025.pn.lcssa.i = phi ptr [ %.025.lcssa.i, %._crit_edge.i ], [ %.1268.i, %.lr.ph10.i ]
  %.1.lcssa.i = phi i32 [ %3, %._crit_edge.i ], [ %60, %.lr.ph10.i ]
  %.126.lcssa.i = phi ptr [ %.1265.i, %._crit_edge.i ], [ %.126.i, %.lr.ph10.i ]
  %63 = trunc nuw i32 %.1.lcssa.i to i8
  %64 = getelementptr inbounds nuw i8, ptr %.025.pn.lcssa.i, i64 2
  store i8 %63, ptr %.126.lcssa.i, align 1, !tbaa !6
  %65 = zext i32 %3 to i64
  tail call void @llvm.memcpy.p0.p0.i64(ptr nonnull align 1 %64, ptr readonly align 1 %2, i64 %65, i1 false)
  %66 = ptrtoint ptr %64 to i64
  %67 = ptrtoint ptr %53 to i64
  %68 = sub i64 %66, %67
  %69 = trunc i64 %68 to i32
  %70 = add i32 %3, %69
  %71 = load i32, ptr %24, align 8, !tbaa !46
  %72 = add i32 %70, %71
  store i32 %72, ptr %24, align 8, !tbaa !46
  %73 = load i32, ptr %47, align 4, !tbaa !42
  store i32 %73, ptr %49, align 4, !tbaa !51
  store i32 %25, ptr %46, align 4, !tbaa !51
  br label %.critedge

.critedge:                                        ; preds = %4, %15, %_ZL36fstWriterUint32WithVarint32AndLengthP16fstWriterContextPjjPKvj.exit, %5
  ret void
}